; Function Attrs: nofree norecurse nosync nounwind memory(read, inaccessiblemem: none) uwtable
define range(i32 0, 2) i32 @Cudd_ReorderingReporting(ptr noundef readonly captures(none) %0) local_unnamed_addr #9 {
  %2 = getelementptr inbounds nuw i8, ptr %0, i64 592
  %.110.i = load ptr, ptr %2, align 8
  %.not11.i = icmp eq ptr %.110.i, null
  br i1 %.not11.i, label %Cudd_IsInHook.exit, label %.lr.ph.i

3:                                                ; preds = %.lr.ph.i
  %4 = getelementptr inbounds nuw i8, ptr %.112.i, i64 8
  %.1.i = load ptr, ptr %4, align 8
  %.not.i = icmp eq ptr %.1.i, null
  br i1 %.not.i, label %Cudd_IsInHook.exit, label %.lr.ph.i, !llvm.loop !32

.lr.ph.i:                                         ; preds = %1, %3
  %.112.i = phi ptr [ %.1.i, %3 ], [ %.110.i, %1 ]
  %5 = load ptr, ptr %.112.i, align 8
  %6 = icmp eq ptr %5, @Cudd_StdPreReordHook
  br i1 %6, label %Cudd_IsInHook.exit, label %3

Cudd_IsInHook.exit:                               ; preds = %3, %.lr.ph.i, %1
  %.09.i = phi i32 [ 0, %1 ], [ 0, %3 ], [ 1, %.lr.ph.i ]
  ret i32 %.09.i
}